target datalayout = "e-m:e-p270:32:32-p271:32:32-p272:64:64-i64:64-i128:128-f80:128-n8:16:32:64-S128"
target triple = "x86_64-pc-linux-gnu"

%struct.global_State = type { ptr, ptr, i64, i64, i64, i64, %struct.stringtable, %struct.TValue, %struct.TValue, i32, [6 x i8], i8, i8, i8, i8, i8, i8, ptr, ptr, ptr, ptr, ptr, ptr, ptr, ptr, ptr, ptr, ptr, ptr, ptr, ptr, ptr, ptr, ptr, ptr, ptr, ptr, ptr, [25 x ptr], [9 x ptr], [53 x [2 x ptr]], ptr, ptr }
%struct.stringtable = type { ptr, i32, i32 }
%struct.TValue = type { %union.Value, i8 }
%union.Value = type { ptr }
%struct.lua_State = type { ptr, i8, i8, i8, i8, i16, %union.StkIdRel, ptr, ptr, %union.StkIdRel, %union.StkIdRel, ptr, %union.StkIdRel, ptr, ptr, ptr, %struct.CallInfo, ptr, i64, i32, i32, i32, i32, i32, %struct.anon.2 }
%union.StkIdRel = type { ptr }
%struct.CallInfo = type { %union.StkIdRel, %union.StkIdRel, ptr, ptr, %union.anon, %union.anon.1, i32 }
%union.anon = type { %struct.anon.0 }
%struct.anon.0 = type { ptr, i64, i64 }
%union.anon.1 = type { i32 }
%struct.anon.2 = type { i32, i32 }
%union.StackValue = type { %struct.TValue }

; Function Attrs: nounwind uwtable
define internal void @init_registry(ptr noundef %0, ptr noundef %1) #0 {
  %3 = alloca ptr, align 8
  %4 = alloca ptr, align 8
  %5 = alloca %struct.TValue, align 8
  %6 = alloca ptr, align 8
  %7 = alloca ptr, align 8
  %8 = alloca ptr, align 8
  %9 = alloca ptr, align 8
  %10 = alloca ptr, align 8
  %11 = alloca ptr, align 8
  %12 = alloca ptr, align 8
  store ptr %0, ptr %3, align 8, !tbaa !22
  store ptr %1, ptr %4, align 8, !tbaa !4
  call void @llvm.lifetime.start.p0(i64 16, ptr %5) #6
  call void @llvm.lifetime.start.p0(i64 8, ptr %6) #6
  %13 = load ptr, ptr %3, align 8, !tbaa !22
  %14 = call ptr @luaH_new(ptr noundef %13)
  store ptr %14, ptr %6, align 8, !tbaa !99
  call void @llvm.lifetime.start.p0(i64 8, ptr %7) #6
  %15 = load ptr, ptr %4, align 8, !tbaa !4
  %16 = getelementptr inbounds nuw %struct.global_State, ptr %15, i32 0, i32 7
  store ptr %16, ptr %7, align 8, !tbaa !39
  call void @llvm.lifetime.start.p0(i64 8, ptr %8) #6
  %17 = load ptr, ptr %6, align 8, !tbaa !99
  store ptr %17, ptr %8, align 8, !tbaa !99
  %18 = load ptr, ptr %8, align 8, !tbaa !99
  %19 = load ptr, ptr %7, align 8, !tbaa !39
  %20 = getelementptr inbounds nuw %struct.TValue, ptr %19, i32 0, i32 0
  store ptr %18, ptr %20, align 8, !tbaa !34
  %21 = load ptr, ptr %7, align 8, !tbaa !39
  %22 = getelementptr inbounds nuw %struct.TValue, ptr %21, i32 0, i32 1
  store i8 69, ptr %22, align 8, !tbaa !41
  call void @llvm.lifetime.end.p0(i64 8, ptr %8) #6
  call void @llvm.lifetime.end.p0(i64 8, ptr %7) #6
  %23 = load ptr, ptr %3, align 8, !tbaa !22
  %24 = load ptr, ptr %6, align 8, !tbaa !99
  call void @luaH_resize(ptr noundef %23, ptr noundef %24, i32 noundef 3, i32 noundef 0)
  %25 = getelementptr inbounds nuw %struct.TValue, ptr %5, i32 0, i32 1
  store i8 1, ptr %25, align 8, !tbaa !41
  %26 = load ptr, ptr %3, align 8, !tbaa !22
  %27 = load ptr, ptr %6, align 8, !tbaa !99
  call void @luaH_setint(ptr noundef %26, ptr noundef %27, i64 noundef 1, ptr noundef %5)
  call void @llvm.lifetime.start.p0(i64 8, ptr %9) #6
  store ptr %5, ptr %9, align 8, !tbaa !39
  call void @llvm.lifetime.start.p0(i64 8, ptr %10) #6
  %28 = load ptr, ptr %3, align 8, !tbaa !22
  store ptr %28, ptr %10, align 8, !tbaa !22
  %29 = load ptr, ptr %10, align 8, !tbaa !22
  %30 = load ptr, ptr %9, align 8, !tbaa !39
  %31 = getelementptr inbounds nuw %struct.TValue, ptr %30, i32 0, i32 0
  store ptr %29, ptr %31, align 8, !tbaa !34
  %32 = load ptr, ptr %9, align 8, !tbaa !39
  %33 = getelementptr inbounds nuw %struct.TValue, ptr %32, i32 0, i32 1
  store i8 72, ptr %33, align 8, !tbaa !41
  call void @llvm.lifetime.end.p0(i64 8, ptr %10) #6
  call void @llvm.lifetime.end.p0(i64 8, ptr %9) #6
  %34 = load ptr, ptr %3, align 8, !tbaa !22
  %35 = load ptr, ptr %6, align 8, !tbaa !99
  call void @luaH_setint(ptr noundef %34, ptr noundef %35, i64 noundef 3, ptr noundef %5)
  call void @llvm.lifetime.start.p0(i64 8, ptr %11) #6
  store ptr %5, ptr %11, align 8, !tbaa !39
  call void @llvm.lifetime.start.p0(i64 8, ptr %12) #6
  %36 = load ptr, ptr %3, align 8, !tbaa !22
  %37 = call ptr @luaH_new(ptr noundef %36)
  store ptr %37, ptr %12, align 8, !tbaa !99
  %38 = load ptr, ptr %12, align 8, !tbaa !99
  %39 = load ptr, ptr %11, align 8, !tbaa !39
  %40 = getelementptr inbounds nuw %struct.TValue, ptr %39, i32 0, i32 0
  store ptr %38, ptr %40, align 8, !tbaa !34
  %41 = load ptr, ptr %11, align 8, !tbaa !39
  %42 = getelementptr inbounds nuw %struct.TValue, ptr %41, i32 0, i32 1
  store i8 69, ptr %42, align 8, !tbaa !41
  call void @llvm.lifetime.end.p0(i64 8, ptr %12) #6
  call void @llvm.lifetime.end.p0(i64 8, ptr %11) #6
  %43 = load ptr, ptr %3, align 8, !tbaa !22
  %44 = load ptr, ptr %6, align 8, !tbaa !99
  call void @luaH_setint(ptr noundef %43, ptr noundef %44, i64 noundef 2, ptr noundef %5)
  call void @llvm.lifetime.end.p0(i64 8, ptr %6) #6
  call void @llvm.lifetime.end.p0(i64 16, ptr %5) #6
  ret void
}

; Function Attrs: nounwind uwtable
define internal void @stack_init(ptr noundef %0, ptr noundef %1) #0 {
  %3 = alloca ptr, align 8
  %4 = alloca ptr, align 8
  %5 = alloca i32, align 4
  %6 = alloca ptr, align 8
  store ptr %0, ptr %3, align 8, !tbaa !22
  store ptr %1, ptr %4, align 8, !tbaa !22
  call void @llvm.lifetime.start.p0(i64 4, ptr %5) #6
  call void @llvm.lifetime.start.p0(i64 8, ptr %6) #6
  %7 = load ptr, ptr %4, align 8, !tbaa !22
  %8 = call ptr @luaM_malloc_(ptr noundef %7, i64 noundef 720, i32 noundef 0)
  %9 = load ptr, ptr %3, align 8, !tbaa !22
  %10 = getelementptr inbounds nuw %struct.lua_State, ptr %9, i32 0, i32 10
  store ptr %8, ptr %10, align 8, !tbaa !34
  %11 = load ptr, ptr %3, align 8, !tbaa !22
  %12 = getelementptr inbounds nuw %struct.lua_State, ptr %11, i32 0, i32 10
  %13 = load ptr, ptr %12, align 8, !tbaa !34
  %14 = load ptr, ptr %3, align 8, !tbaa !22
  %15 = getelementptr inbounds nuw %struct.lua_State, ptr %14, i32 0, i32 12
  store ptr %13, ptr %15, align 8, !tbaa !34
  store i32 0, ptr %5, align 4, !tbaa !54
  br label %16

16:                                               ; preds = %27, %2
  %17 = load i32, ptr %5, align 4, !tbaa !54
  %18 = icmp slt i32 %17, 45
  br i1 %18, label %19, label %30

19:                                               ; preds = %16
  %20 = load ptr, ptr %3, align 8, !tbaa !22
  %21 = getelementptr inbounds nuw %struct.lua_State, ptr %20, i32 0, i32 10
  %22 = load ptr, ptr %21, align 8, !tbaa !34
  %23 = load i32, ptr %5, align 4, !tbaa !54
  %24 = sext i32 %23 to i64
  %25 = getelementptr inbounds %union.StackValue, ptr %22, i64 %24
  %26 = getelementptr inbounds nuw %struct.TValue, ptr %25, i32 0, i32 1
  store i8 0, ptr %26, align 8, !tbaa !34
  br label %27

27:                                               ; preds = %19
  %28 = load i32, ptr %5, align 4, !tbaa !54
  %29 = add nsw i32 %28, 1
  store i32 %29, ptr %5, align 4, !tbaa !54
  br label %16

30:                                               ; preds = %16
  %31 = load ptr, ptr %3, align 8, !tbaa !22
  %32 = getelementptr inbounds nuw %struct.lua_State, ptr %31, i32 0, i32 10
  %33 = load ptr, ptr %32, align 8, !tbaa !34
  %34 = load ptr, ptr %3, align 8, !tbaa !22
  %35 = getelementptr inbounds nuw %struct.lua_State, ptr %34, i32 0, i32 6
  store ptr %33, ptr %35, align 8, !tbaa !34
  %36 = load ptr, ptr %3, align 8, !tbaa !22
  %37 = getelementptr inbounds nuw %struct.lua_State, ptr %36, i32 0, i32 10
  %38 = load ptr, ptr %37, align 8, !tbaa !34
  %39 = getelementptr inbounds %union.StackValue, ptr %38, i64 40
  %40 = load ptr, ptr %3, align 8, !tbaa !22
  %41 = getelementptr inbounds nuw %struct.lua_State, ptr %40, i32 0, i32 9
  store ptr %39, ptr %41, align 8, !tbaa !34
  %42 = load ptr, ptr %3, align 8, !tbaa !22
  %43 = getelementptr inbounds nuw %struct.lua_State, ptr %42, i32 0, i32 16
  store ptr %43, ptr %6, align 8, !tbaa !23
  %44 = load ptr, ptr %6, align 8, !tbaa !23
  %45 = getelementptr inbounds nuw %struct.CallInfo, ptr %44, i32 0, i32 2
  store ptr null, ptr %45, align 8, !tbaa !33
  %46 = load ptr, ptr %6, align 8, !tbaa !23
  %47 = getelementptr inbounds nuw %struct.CallInfo, ptr %46, i32 0, i32 3
  store ptr null, ptr %47, align 8, !tbaa !32
  %48 = load ptr, ptr %6, align 8, !tbaa !23
  %49 = getelementptr inbounds nuw %struct.CallInfo, ptr %48, i32 0, i32 6
  store i32 32768, ptr %49, align 4, !tbaa !55
  %50 = load ptr, ptr %3, align 8, !tbaa !22
  %51 = getelementptr inbounds nuw %struct.lua_State, ptr %50, i32 0, i32 6
  %52 = load ptr, ptr %51, align 8, !tbaa !34
  %53 = load ptr, ptr %6, align 8, !tbaa !23
  %54 = getelementptr inbounds nuw %struct.CallInfo, ptr %53, i32 0, i32 0
  store ptr %52, ptr %54, align 8, !tbaa !34
  %55 = load ptr, ptr %6, align 8, !tbaa !23
  %56 = getelementptr inbounds nuw %struct.CallInfo, ptr %55, i32 0, i32 4
  %57 = getelementptr inbounds nuw %struct.anon.0, ptr %56, i32 0, i32 0
  store ptr null, ptr %57, align 8, !tbaa !34
  %58 = load ptr, ptr %3, align 8, !tbaa !22
  %59 = getelementptr inbounds nuw %struct.lua_State, ptr %58, i32 0, i32 6
  %60 = load ptr, ptr %59, align 8, !tbaa !34
  %61 = getelementptr inbounds nuw %struct.TValue, ptr %60, i32 0, i32 1
  store i8 0, ptr %61, align 8, !tbaa !34
  %62 = load ptr, ptr %3, align 8, !tbaa !22
  %63 = getelementptr inbounds nuw %struct.lua_State, ptr %62, i32 0, i32 6
  %64 = load ptr, ptr %63, align 8, !tbaa !34
  %65 = getelementptr inbounds nuw %union.StackValue, ptr %64, i32 1
  store ptr %65, ptr %63, align 8, !tbaa !34
  %66 = load ptr, ptr %3, align 8, !tbaa !22
  %67 = getelementptr inbounds nuw %struct.lua_State, ptr %66, i32 0, i32 6
  %68 = load ptr, ptr %67, align 8, !tbaa !34
  %69 = getelementptr inbounds %union.StackValue, ptr %68, i64 20
  %70 = load ptr, ptr %6, align 8, !tbaa !23
  %71 = getelementptr inbounds nuw %struct.CallInfo, ptr %70, i32 0, i32 1
  store ptr %69, ptr %71, align 8, !tbaa !34
  %72 = load ptr, ptr %6, align 8, !tbaa !23
  %73 = load ptr, ptr %3, align 8, !tbaa !22
  %74 = getelementptr inbounds nuw %struct.lua_State, ptr %73, i32 0, i32 8
  store ptr %72, ptr %74, align 8, !tbaa !25
  call void @llvm.lifetime.end.p0(i64 8, ptr %6) #6
  call void @llvm.lifetime.end.p0(i64 4, ptr %5) #6
  ret void
}

; Function Attrs: nounwind uwtable
define internal void @f_luaopen(ptr noundef %0, ptr noundef %1) #0 {
  %3 = alloca ptr, align 8
  %4 = alloca ptr, align 8
  %5 = alloca ptr, align 8
  store ptr %0, ptr %3, align 8, !tbaa !22
  store ptr %1, ptr %4, align 8, !tbaa !58
  call void @llvm.lifetime.start.p0(i64 8, ptr %5) #6
  %6 = load ptr, ptr %3, align 8, !tbaa !22
  %7 = getelementptr inbounds nuw %struct.lua_State, ptr %6, i32 0, i32 7
  %8 = load ptr, ptr %7, align 8, !tbaa !37
  store ptr %8, ptr %5, align 8, !tbaa !4
  %9 = load ptr, ptr %3, align 8, !tbaa !22
  %10 = load ptr, ptr %3, align 8, !tbaa !22
  call void @stack_init(ptr noundef %9, ptr noundef %10)
  %11 = load ptr, ptr %3, align 8, !tbaa !22
  %12 = load ptr, ptr %5, align 8, !tbaa !4
  call void @init_registry(ptr noundef %11, ptr noundef %12)
  %13 = load ptr, ptr %3, align 8, !tbaa !22
  call void @luaS_init(ptr noundef %13)
  %14 = load ptr, ptr %3, align 8, !tbaa !22
  call void @luaT_init(ptr noundef %14)
  %15 = load ptr, ptr %3, align 8, !tbaa !22
  call void @luaX_init(ptr noundef %15)
  %16 = load ptr, ptr %5, align 8, !tbaa !4
  %17 = getelementptr inbounds nuw %struct.global_State, ptr %16, i32 0, i32 15
  store i8 0, ptr %17, align 2, !tbaa !71
  %18 = load ptr, ptr %5, align 8, !tbaa !4
  %19 = getelementptr inbounds nuw %struct.global_State, ptr %18, i32 0, i32 8
  %20 = getelementptr inbounds nuw %struct.TValue, ptr %19, i32 0, i32 1
  store i8 0, ptr %20, align 8, !tbaa !101
  call void @llvm.lifetime.end.p0(i64 8, ptr %5) #6
  ret void
}