; Function Attrs: nounwind uwtable
define internal void @f_luaopen(ptr noundef %0, ptr readnone captures(none) %1) #2 {
  %3 = alloca %struct.TValue, align 8
  %4 = getelementptr inbounds nuw i8, ptr %0, i64 24
  %5 = load ptr, ptr %4, align 8, !tbaa !34
  %6 = tail call ptr @luaM_malloc_(ptr noundef %0, i64 noundef 720, i32 noundef 0) #8
  %7 = getelementptr inbounds nuw i8, ptr %0, i64 48
  store ptr %6, ptr %7, align 8, !tbaa !30
  %8 = getelementptr inbounds nuw i8, ptr %0, i64 64
  store ptr %6, ptr %8, align 8, !tbaa !30
  br label %9

9:                                                ; preds = %9, %2
  %indvars.iv.i = phi i64 [ 0, %2 ], [ %indvars.iv.next.i, %9 ]
  %10 = load ptr, ptr %7, align 8, !tbaa !30
  %11 = getelementptr inbounds nuw %union.StackValue, ptr %10, i64 %indvars.iv.i, i32 0, i32 1
  store i8 0, ptr %11, align 8, !tbaa !30
  %indvars.iv.next.i = add nuw nsw i64 %indvars.iv.i, 1
  %exitcond.not.i = icmp eq i64 %indvars.iv.next.i, 45
  br i1 %exitcond.not.i, label %stack_init.exit, label %9

stack_init.exit:                                  ; preds = %9
  %12 = load ptr, ptr %7, align 8, !tbaa !30
  %13 = getelementptr inbounds nuw i8, ptr %0, i64 16
  store ptr %12, ptr %13, align 8, !tbaa !30
  %14 = getelementptr inbounds nuw i8, ptr %12, i64 640
  %15 = getelementptr inbounds nuw i8, ptr %0, i64 40
  store ptr %14, ptr %15, align 8, !tbaa !30
  %16 = getelementptr inbounds nuw i8, ptr %0, i64 96
  %17 = getelementptr inbounds nuw i8, ptr %0, i64 112
  %18 = getelementptr inbounds nuw i8, ptr %0, i64 156
  tail call void @llvm.memset.p0.i64(ptr noundef nonnull align 8 dereferenceable(16) %17, i8 0, i64 16, i1 false)
  store i32 32768, ptr %18, align 4, !tbaa !48
  store ptr %12, ptr %16, align 8, !tbaa !30
  %19 = getelementptr inbounds nuw i8, ptr %0, i64 128
  store ptr null, ptr %19, align 8, !tbaa !30
  %20 = getelementptr inbounds nuw i8, ptr %12, i64 8
  store i8 0, ptr %20, align 8, !tbaa !30
  %21 = load ptr, ptr %13, align 8, !tbaa !30
  %22 = getelementptr inbounds nuw i8, ptr %21, i64 16
  store ptr %22, ptr %13, align 8, !tbaa !30
  %23 = getelementptr inbounds nuw i8, ptr %21, i64 336
  %24 = getelementptr inbounds nuw i8, ptr %0, i64 104
  store ptr %23, ptr %24, align 8, !tbaa !30
  %25 = getelementptr inbounds nuw i8, ptr %0, i64 32
  store ptr %16, ptr %25, align 8, !tbaa !19
  call void @llvm.lifetime.start.p0(i64 16, ptr nonnull %3) #8
  %26 = tail call ptr @luaH_new(ptr noundef nonnull %0) #8
  %27 = getelementptr inbounds nuw i8, ptr %5, i64 64
  store ptr %26, ptr %27, align 8, !tbaa !30
  %28 = getelementptr inbounds nuw i8, ptr %5, i64 72
  store i8 69, ptr %28, align 8, !tbaa !35
  tail call void @luaH_resize(ptr noundef nonnull %0, ptr noundef %26, i32 noundef 3, i32 noundef 0) #8
  %29 = getelementptr inbounds nuw i8, ptr %3, i64 8
  store i8 1, ptr %29, align 8, !tbaa !35
  call void @luaH_setint(ptr noundef nonnull %0, ptr noundef %26, i64 noundef 1, ptr noundef nonnull %3) #8
  store ptr %0, ptr %3, align 8, !tbaa !30
  store i8 72, ptr %29, align 8, !tbaa !35
  call void @luaH_setint(ptr noundef nonnull %0, ptr noundef %26, i64 noundef 3, ptr noundef nonnull %3) #8
  %30 = call ptr @luaH_new(ptr noundef nonnull %0) #8
  store ptr %30, ptr %3, align 8, !tbaa !30
  store i8 69, ptr %29, align 8, !tbaa !35
  call void @luaH_setint(ptr noundef nonnull %0, ptr noundef %26, i64 noundef 2, ptr noundef nonnull %3) #8
  call void @llvm.lifetime.end.p0(i64 16, ptr nonnull %3) #8
  call void @luaS_init(ptr noundef nonnull %0) #8
  call void @luaT_init(ptr noundef nonnull %0) #8
  call void @luaX_init(ptr noundef nonnull %0) #8
  %31 = getelementptr inbounds nuw i8, ptr %5, i64 110
  store i8 0, ptr %31, align 2, !tbaa !57
  %32 = getelementptr inbounds nuw i8, ptr %5, i64 88
  store i8 0, ptr %32, align 8, !tbaa !66
  ret void
}